SF:/Users/modii/Dropbox/Development/University/year-3/lightweight-muse/src/ast.rs
FN:80,_RNvMs0_NtCs2m0cy4S2nDJ_16lightweight_muse3astNtB5_4LVal8traverse
FN:89,_RNvXsl_NtCs2m0cy4S2nDJ_16lightweight_muse3astNtB5_7ProgramNtNtCse53whbGO0JW_4core3fmt5Debug3fmt
FN:14,_RNvXNtCs2m0cy4S2nDJ_16lightweight_muse3astNtB2_9ReferenceNtNtCse53whbGO0JW_4core3fmt7Display3fmt
FN:21,_RINvXse_NtCs2m0cy4S2nDJ_16lightweight_muse3astNtB6_5ValueNtNtCse53whbGO0JW_4core4hash4Hash4hashNtNtNtNtCsesKfHIvL7VD_3std11collections4hash3map13DefaultHasherEB8_
FN:6,_RINvXs7_NtCs2m0cy4S2nDJ_16lightweight_muse3astNtB6_9ReferenceNtNtCse53whbGO0JW_4core4hash4Hash4hashNtNtNtNtCsesKfHIvL7VD_3std11collections4hash3map13DefaultHasherEB8_
FN:58,_RNvMs0_NtCs2m0cy4S2nDJ_16lightweight_muse3astNtB5_4LVal11is_copyable
FN:21,_RNvXs8_NtCs2m0cy4S2nDJ_16lightweight_muse3astNtB5_5ValueNtNtCse53whbGO0JW_4core3fmt5Debug3fmt
FN:21,_RNvXs9_NtCs2m0cy4S2nDJ_16lightweight_muse3astNtB5_5ValueNtNtCse53whbGO0JW_4core5clone5Clone5cloneB7_
FN:40,_RNvXsf_NtCs2m0cy4S2nDJ_16lightweight_muse3astNtB5_4LValNtNtCse53whbGO0JW_4core3fmt5Debug3fmt
FN:95,_RNvXsn_NtCs2m0cy4S2nDJ_16lightweight_muse3astNtB5_4TermNtNtCse53whbGO0JW_4core5clone5Clone5cloneB7_
FN:133,_RNvXsp_NtCs2m0cy4S2nDJ_16lightweight_muse3astNtB5_8ArgumentNtNtCse53whbGO0JW_4core5clone5Clone5cloneB7_
FN:73,_RNvMs0_NtCs2m0cy4S2nDJ_16lightweight_muse3astNtB5_4LVal12set_copyable
FN:52,_RNvMs0_NtCs2m0cy4S2nDJ_16lightweight_muse3astNtB5_4LVal8get_name
FN:21,_RNvXsd_NtCs2m0cy4S2nDJ_16lightweight_muse3astNtB5_5ValueNtNtCse53whbGO0JW_4core3cmp9PartialEq2eqB7_
FN:95,_RNvXsm_NtCs2m0cy4S2nDJ_16lightweight_muse3astNtB5_4TermNtNtCse53whbGO0JW_4core3fmt5Debug3fmt
FN:133,_RNvXso_NtCs2m0cy4S2nDJ_16lightweight_muse3astNtB5_8ArgumentNtNtCse53whbGO0JW_4core3fmt5Debug3fmt
FN:30,_RNvXs_NtCs2m0cy4S2nDJ_16lightweight_muse3astNtB4_5ValueNtNtCse53whbGO0JW_4core3fmt7Display3fmt
FN:40,_RNvXsi_NtCs2m0cy4S2nDJ_16lightweight_muse3astNtB5_4LValNtNtCse53whbGO0JW_4core3cmp9PartialEq2eqB7_
FN:6,_RNvXs4_NtCs2m0cy4S2nDJ_16lightweight_muse3astNtB5_9ReferenceNtNtCse53whbGO0JW_4core3cmp9PartialEq2eqB7_
FN:40,_RNvXsg_NtCs2m0cy4S2nDJ_16lightweight_muse3astNtB5_4LValNtNtCse53whbGO0JW_4core5clone5Clone5cloneB7_
FN:6,_RNvXs2_NtCs2m0cy4S2nDJ_16lightweight_muse3astNtB5_9ReferenceNtNtCse53whbGO0JW_4core5clone5Clone5cloneB7_
FN:6,_RNvXs1_NtCs2m0cy4S2nDJ_16lightweight_muse3astNtB5_9ReferenceNtNtCse53whbGO0JW_4core3fmt5Debug3fmt
FNDA:0,_RNvMs0_NtCs2m0cy4S2nDJ_16lightweight_muse3astNtB5_4LVal8traverse
FNDA:0,_RNvXsl_NtCs2m0cy4S2nDJ_16lightweight_muse3astNtB5_7ProgramNtNtCse53whbGO0JW_4core3fmt5Debug3fmt
FNDA:0,_RNvXNtCs2m0cy4S2nDJ_16lightweight_muse3astNtB2_9ReferenceNtNtCse53whbGO0JW_4core3fmt7Display3fmt
FNDA:22,_RINvXse_NtCs2m0cy4S2nDJ_16lightweight_muse3astNtB6_5ValueNtNtCse53whbGO0JW_4core4hash4Hash4hashNtNtNtNtCsesKfHIvL7VD_3std11collections4hash3map13DefaultHasherEB8_
FNDA:16,_RINvXs7_NtCs2m0cy4S2nDJ_16lightweight_muse3astNtB6_9ReferenceNtNtCse53whbGO0JW_4core4hash4Hash4hashNtNtNtNtCsesKfHIvL7VD_3std11collections4hash3map13DefaultHasherEB8_
FNDA:60,_RNvMs0_NtCs2m0cy4S2nDJ_16lightweight_muse3astNtB5_4LVal11is_copyable
FNDA:330,_RNvXs8_NtCs2m0cy4S2nDJ_16lightweight_muse3astNtB5_5ValueNtNtCse53whbGO0JW_4core3fmt5Debug3fmt
FNDA:1179,_RNvXs9_NtCs2m0cy4S2nDJ_16lightweight_muse3astNtB5_5ValueNtNtCse53whbGO0JW_4core5clone5Clone5cloneB7_
FNDA:676,_RNvXsf_NtCs2m0cy4S2nDJ_16lightweight_muse3astNtB5_4LValNtNtCse53whbGO0JW_4core3fmt5Debug3fmt
FNDA:1635,_RNvXsn_NtCs2m0cy4S2nDJ_16lightweight_muse3astNtB5_4TermNtNtCse53whbGO0JW_4core5clone5Clone5cloneB7_
FNDA:270,_RNvXsp_NtCs2m0cy4S2nDJ_16lightweight_muse3astNtB5_8ArgumentNtNtCse53whbGO0JW_4core5clone5Clone5cloneB7_
FNDA:86,_RNvMs0_NtCs2m0cy4S2nDJ_16lightweight_muse3astNtB5_4LVal12set_copyable
FNDA:1080,_RNvMs0_NtCs2m0cy4S2nDJ_16lightweight_muse3astNtB5_4LVal8get_name
FNDA:11,_RNvXsd_NtCs2m0cy4S2nDJ_16lightweight_muse3astNtB5_5ValueNtNtCse53whbGO0JW_4core3cmp9PartialEq2eqB7_
FNDA:482,_RNvXsm_NtCs2m0cy4S2nDJ_16lightweight_muse3astNtB5_4TermNtNtCse53whbGO0JW_4core3fmt5Debug3fmt
FNDA:70,_RNvXso_NtCs2m0cy4S2nDJ_16lightweight_muse3astNtB5_8ArgumentNtNtCse53whbGO0JW_4core3fmt5Debug3fmt
FNDA:22,_RNvXs_NtCs2m0cy4S2nDJ_16lightweight_muse3astNtB4_5ValueNtNtCse53whbGO0JW_4core3fmt7Display3fmt
FNDA:0,_RNvXsi_NtCs2m0cy4S2nDJ_16lightweight_muse3astNtB5_4LValNtNtCse53whbGO0JW_4core3cmp9PartialEq2eqB7_
FNDA:14,_RNvXs4_NtCs2m0cy4S2nDJ_16lightweight_muse3astNtB5_9ReferenceNtNtCse53whbGO0JW_4core3cmp9PartialEq2eqB7_
FNDA:2937,_RNvXsg_NtCs2m0cy4S2nDJ_16lightweight_muse3astNtB5_4LValNtNtCse53whbGO0JW_4core5clone5Clone5cloneB7_
FNDA:1031,_RNvXs2_NtCs2m0cy4S2nDJ_16lightweight_muse3astNtB5_9ReferenceNtNtCse53whbGO0JW_4core5clone5Clone5cloneB7_
FNDA:167,_RNvXs1_NtCs2m0cy4S2nDJ_16lightweight_muse3astNtB5_9ReferenceNtNtCse53whbGO0JW_4core3fmt5Debug3fmt
FNF:22
FNH:18
DA:6,1031
DA:14,0
DA:15,0
DA:16,0
DA:21,1179
DA:30,22
DA:31,22
DA:32,21
DA:33,0
DA:34,0
DA:35,1
DA:37,22
DA:40,2937
DA:52,1080
DA:53,1080
DA:54,973
DA:55,107
DA:57,1080
DA:58,60
DA:59,60
DA:60,48
DA:61,48
DA:62,48
DA:63,0
DA:66,12
DA:67,12
DA:70,60
DA:73,86
DA:74,86
DA:75,73
DA:76,13
DA:78,86
DA:80,0
DA:81,0
DA:82,0
DA:83,0
DA:85,0
DA:89,0
DA:95,1635
DA:133,270
BRF:0
BRH:0
LF:50
LH:37
end_of_record
SF:/Users/modii/Dropbox/Development/University/year-3/lightweight-muse/src/constants.rs
FN:47,_RNvMNtCs2m0cy4S2nDJ_16lightweight_muse9constantsNtB2_9TypeError9to_string
FNDA:20,_RNvMNtCs2m0cy4S2nDJ_16lightweight_muse9constantsNtB2_9TypeError9to_string
FNF:1
FNH:1
DA:47,20
DA:48,20
DA:49,2
DA:50,2
DA:51,0
DA:52,0
DA:53,2
DA:54,0
DA:55,0
DA:56,4
DA:57,2
DA:58,0
DA:59,0
DA:60,0
DA:61,2
DA:62,0
DA:63,4
DA:64,2
DA:66,20
BRF:0
BRH:0
LF:19
LH:11
end_of_record
SF:/Users/modii/Dropbox/Development/University/year-3/lightweight-muse/src/interpreter.rs
FN:10,_RNvMNtCs2m0cy4S2nDJ_16lightweight_muse11interpreterNtB2_11Interpreter3new
FN:25,_RNvMNtCs2m0cy4S2nDJ_16lightweight_muse11interpreterNtB2_11Interpreter3run
FNDA:21,_RNvMNtCs2m0cy4S2nDJ_16lightweight_muse11interpreterNtB2_11Interpreter3new
FNDA:21,_RNvMNtCs2m0cy4S2nDJ_16lightweight_muse11interpreterNtB2_11Interpreter3run
FNF:2
FNH:2
DA:10,21
DA:11,21
DA:12,21
DA:13,21
DA:14,21
DA:15,21
DA:16,21
DA:17,21
DA:18,21
DA:19,21
DA:20,21
DA:21,21
DA:22,21
DA:23,21
DA:25,21
DA:26,21
DA:27,21
DA:28,21
DA:29,21
DA:31,21
DA:33,11
DA:35,46
DA:37,35
DA:38,35
DA:39,35
DA:40,35
DA:41,35
DA:42,35
DA:43,35
DA:44,35
DA:45,35
DA:46,35
DA:47,35
DA:48,35
DA:49,35
DA:50,35
DA:51,35
DA:52,35
DA:53,0
DA:54,0
DA:55,0
DA:59,35
DA:60,35
DA:61,35
DA:62,35
DA:63,35
DA:64,35
DA:65,0
DA:66,0
DA:67,0
DA:71,35
DA:72,35
DA:73,0
DA:76,35
DA:78,35
DA:79,35
DA:104,11
DA:105,11
DA:106,11
DA:107,11
DA:108,11
DA:109,11
DA:110,11
DA:111,11
DA:112,11
DA:113,11
DA:114,11
DA:115,11
DA:116,11
DA:117,11
DA:118,21
BRF:0
BRH:0
LF:71
LH:64
end_of_record
SF:/Users/modii/Dropbox/Development/University/year-3/lightweight-muse/src/lexer.rs
FN:19,_RNvMNtCs2m0cy4S2nDJ_16lightweight_muse5lexerNtB2_5Lexer10next_token
FN:57,_RNvMNtCs2m0cy4S2nDJ_16lightweight_muse5lexerNtB2_5Lexer8tokenize
FN:11,_RNvMNtCs2m0cy4S2nDJ_16lightweight_muse5lexerNtB2_5Lexer3new
FN:14,_RNCNvMNtCs2m0cy4S2nDJ_16lightweight_muse5lexerNtB4_5Lexer3new0B6_
FNDA:480,_RNvMNtCs2m0cy4S2nDJ_16lightweight_muse5lexerNtB2_5Lexer10next_token
FNDA:21,_RNvMNtCs2m0cy4S2nDJ_16lightweight_muse5lexerNtB2_5Lexer8tokenize
FNDA:21,_RNvMNtCs2m0cy4S2nDJ_16lightweight_muse5lexerNtB2_5Lexer3new
FNDA:459,_RNCNvMNtCs2m0cy4S2nDJ_16lightweight_muse5lexerNtB4_5Lexer3new0B6_
FNF:4
FNH:4
DA:11,21
DA:12,21
DA:13,21
DA:14,459
DA:15,21
DA:16,21
DA:17,21
DA:19,480
DA:20,480
DA:21,480
DA:22,459
DA:23,459
DA:24,459
DA:25,459
DA:26,459
DA:27,449
DA:28,437
DA:29,417
DA:30,366
DA:31,304
DA:32,295
DA:33,284
DA:34,281
DA:35,263
DA:36,245
DA:37,236
DA:38,227
DA:42,166
DA:43,30
DA:44,136
DA:45,136
DA:48,0
DA:53,21
DA:55,480
DA:57,21
DA:58,21
DA:60,480
DA:61,480
DA:62,480
DA:63,21
DA:64,459
DA:65,459
DA:67,21
DA:68,21
BRF:0
BRH:0
LF:45
LH:44
end_of_record
SF:/Users/modii/Dropbox/Development/University/year-3/lightweight-muse/src/main.rs
FN:1,_RNvCs2m0cy4S2nDJ_16lightweight_muses_4main
FN:19,_RNvCs2m0cy4S2nDJ_16lightweight_muse4main
FNDA:1,_RNvCs2m0cy4S2nDJ_16lightweight_muses_4main
FNDA:0,_RNvCs2m0cy4S2nDJ_16lightweight_muse4main
FNF:2
FNH:1
DA:1,1
DA:19,0
DA:20,0
DA:21,0
DA:22,0
DA:23,0
DA:24,0
DA:25,0
DA:26,0
DA:27,0
DA:28,0
DA:29,0
DA:30,0
DA:31,0
DA:32,0
DA:33,0
DA:34,0
DA:35,0
DA:36,0
DA:37,0
DA:39,0
DA:40,0
DA:41,0
DA:42,0
DA:43,0
DA:44,0
DA:45,0
DA:46,0
DA:47,0
DA:48,0
DA:49,0
DA:50,0
DA:51,0
DA:52,0
DA:53,0
DA:58,0
DA:59,0
DA:60,0
DA:61,0
DA:62,0
DA:63,0
DA:64,0
DA:65,0
DA:66,0
DA:69,0
DA:70,0
DA:71,0
DA:72,0
DA:73,0
DA:74,0
DA:77,0
DA:78,0
DA:79,0
DA:80,0
DA:81,0
DA:82,0
DA:88,0
DA:89,0
DA:90,0
DA:91,0
DA:92,0
DA:93,0
DA:94,0
DA:97,0
DA:98,0
DA:99,0
DA:101,0
BRF:0
BRH:0
LF:67
LH:1
end_of_record
SF:/Users/modii/Dropbox/Development/University/year-3/lightweight-muse/src/parser.rs
FN:136,_RNvMNtCs2m0cy4S2nDJ_16lightweight_muse6parserNtB2_6Parser10parse_args
FN:239,_RNvMNtCs2m0cy4S2nDJ_16lightweight_muse6parserNtB2_6Parser10parse_term
FN:60,_RNvMNtCs2m0cy4S2nDJ_16lightweight_muse6parserNtB2_6Parser16parse_assignment
FN:369,_RNvMNtCs2m0cy4S2nDJ_16lightweight_muse6parserNtB2_6Parser3new
FN:349,_RNvMNtCs2m0cy4S2nDJ_16lightweight_muse6parserNtB2_6Parser5parse
FN:119,_RNvMNtCs2m0cy4S2nDJ_16lightweight_muse6parserNtB2_6Parser10parse_type
FN:46,_RNvMNtCs2m0cy4S2nDJ_16lightweight_muse6parserNtB2_6Parser9parse_let
FN:207,_RNvMNtCs2m0cy4S2nDJ_16lightweight_muse6parserNtB2_6Parser19parse_function_call
FN:324,_RNvMNtCs2m0cy4S2nDJ_16lightweight_muse6parserNtB2_6Parser14parse_variable
FN:14,_RNvMNtCs2m0cy4S2nDJ_16lightweight_muse6parserNtB2_6Parser13check_consume
FN:71,_RNvMNtCs2m0cy4S2nDJ_16lightweight_muse6parserNtB2_6Parser26parse_function_declaration
FN:31,_RNvMNtCs2m0cy4S2nDJ_16lightweight_muse6parserNtB2_6Parser12check_if_mut
FN:27,_RNvMNtCs2m0cy4S2nDJ_16lightweight_muse6parserNtB2_6Parser4peek
FNDA:9,_RNvMNtCs2m0cy4S2nDJ_16lightweight_muse6parserNtB2_6Parser10parse_args
FNDA:156,_RNvMNtCs2m0cy4S2nDJ_16lightweight_muse6parserNtB2_6Parser10parse_term
FNDA:10,_RNvMNtCs2m0cy4S2nDJ_16lightweight_muse6parserNtB2_6Parser16parse_assignment
FNDA:21,_RNvMNtCs2m0cy4S2nDJ_16lightweight_muse6parserNtB2_6Parser3new
FNDA:21,_RNvMNtCs2m0cy4S2nDJ_16lightweight_muse6parserNtB2_6Parser5parse
FNDA:14,_RNvMNtCs2m0cy4S2nDJ_16lightweight_muse6parserNtB2_6Parser10parse_type
FNDA:51,_RNvMNtCs2m0cy4S2nDJ_16lightweight_muse6parserNtB2_6Parser9parse_let
FNDA:9,_RNvMNtCs2m0cy4S2nDJ_16lightweight_muse6parserNtB2_6Parser19parse_function_call
FNDA:86,_RNvMNtCs2m0cy4S2nDJ_16lightweight_muse6parserNtB2_6Parser14parse_variable
FNDA:241,_RNvMNtCs2m0cy4S2nDJ_16lightweight_muse6parserNtB2_6Parser13check_consume
FNDA:9,_RNvMNtCs2m0cy4S2nDJ_16lightweight_muse6parserNtB2_6Parser26parse_function_declaration
FNDA:0,_RNvMNtCs2m0cy4S2nDJ_16lightweight_muse6parserNtB2_6Parser12check_if_mut
FNDA:0,_RNvMNtCs2m0cy4S2nDJ_16lightweight_muse6parserNtB2_6Parser4peek
FNF:13
FNH:11
DA:14,241
DA:15,241
DA:16,241
DA:17,241
DA:18,241
DA:19,241
DA:20,0
DA:23,0
DA:25,241
DA:27,0
DA:28,0
DA:29,0
DA:31,0
DA:32,0
DA:33,0
DA:34,0
DA:36,0
DA:37,0
DA:39,0
DA:42,0
DA:44,0
DA:46,51
DA:47,51
DA:48,51
DA:49,51
DA:50,51
DA:51,51
DA:52,51
DA:53,51
DA:54,51
DA:55,51
DA:56,51
DA:57,51
DA:58,51
DA:60,10
DA:61,10
DA:62,10
DA:63,10
DA:64,10
DA:65,10
DA:66,10
DA:67,10
DA:68,10
DA:69,10
DA:71,9
DA:72,9
DA:75,9
DA:76,9
DA:77,9
DA:78,9
DA:80,0
DA:83,9
DA:84,9
DA:85,9
DA:87,9
DA:89,3
DA:90,3
DA:92,6
DA:95,9
DA:96,9
DA:97,9
DA:98,15
DA:99,15
DA:100,15
DA:101,15
DA:102,9
DA:103,6
DA:104,6
DA:105,0
DA:106,6
DA:109,9
DA:110,9
DA:111,9
DA:112,9
DA:113,9
DA:114,9
DA:115,9
DA:116,9
DA:117,9
DA:119,14
DA:120,14
DA:121,11
DA:122,11
DA:123,11
DA:124,11
DA:125,0
DA:129,3
DA:130,3
DA:132,0
DA:134,14
DA:136,9
DA:137,9
DA:139,19
DA:141,9
DA:143,2
DA:144,2
DA:145,2
DA:146,3
DA:147,3
DA:148,3
DA:149,3
DA:150,3
DA:151,3
DA:152,3
DA:153,3
DA:154,3
DA:155,3
DA:156,3
DA:157,3
DA:159,1
DA:160,1
DA:161,1
DA:162,1
DA:163,1
DA:165,0
DA:167,1
DA:168,1
DA:169,1
DA:170,1
DA:171,1
DA:172,1
DA:173,1
DA:174,1
DA:177,4
DA:178,4
DA:180,4
DA:181,4
DA:183,0
DA:185,4
DA:186,4
DA:187,4
DA:188,4
DA:190,0
DA:192,4
DA:193,4
DA:194,4
DA:195,4
DA:196,4
DA:197,4
DA:198,4
DA:199,4
DA:201,0
DA:204,9
DA:205,9
DA:207,9
DA:208,9
DA:209,9
DA:210,9
DA:211,9
DA:213,0
DA:215,9
DA:216,9
DA:217,9
DA:219,17
DA:221,9
DA:223,1
DA:224,1
DA:225,1
DA:226,7
DA:227,7
DA:228,7
DA:229,7
DA:232,9
DA:233,9
DA:234,9
DA:235,9
DA:236,9
DA:237,9
DA:239,156
DA:240,156
DA:241,156
DA:242,156
DA:244,9
DA:246,30
DA:247,30
DA:248,30
DA:250,33
DA:251,33
DA:252,33
DA:253,5
DA:254,28
DA:255,9
DA:257,19
DA:258,19
DA:259,19
DA:260,19
DA:261,19
DA:262,19
DA:263,19
DA:279,9
DA:280,9
DA:281,9
DA:282,9
DA:286,7
DA:287,7
DA:288,7
DA:289,7
DA:290,7
DA:291,7
DA:292,7
DA:293,7
DA:296,8
DA:297,8
DA:298,8
DA:299,8
DA:300,8
DA:303,51
DA:307,9
DA:308,5
DA:310,4
DA:311,4
DA:312,4
DA:313,4
DA:314,4
DA:315,4
DA:317,0
DA:320,0
DA:322,156
DA:324,86
DA:325,86
DA:326,86
DA:327,86
DA:328,80
DA:329,80
DA:330,80
DA:331,80
DA:332,80
DA:333,80
DA:336,6
DA:337,6
DA:338,6
DA:339,6
DA:340,6
DA:342,0
DA:345,0
DA:347,86
DA:349,21
DA:350,21
DA:352,64
DA:353,64
DA:354,64
DA:355,64
DA:356,64
DA:357,64
DA:358,64
DA:359,64
DA:360,21
DA:361,43
DA:363,21
DA:364,21
DA:365,21
DA:366,21
DA:367,21
DA:369,21
DA:370,21
DA:371,21
DA:372,21
DA:373,21
DA:374,21
BRF:0
BRH:0
LF:259
LH:232
end_of_record
SF:/Users/modii/Dropbox/Development/University/year-3/lightweight-muse/src/properties.rs
FN:127,_RNvNtCs2m0cy4S2nDJ_16lightweight_muse10properties10get_values
FN:111,_RNvNtCs2m0cy4S2nDJ_16lightweight_muse10properties11valid_store
FN:149,_RNvNtCs2m0cy4S2nDJ_16lightweight_muse10properties11valid_state
FN:76,_RNvNtCs2m0cy4S2nDJ_16lightweight_muse10properties16safe_abstraction
FN:5,_RNvNtCs2m0cy4S2nDJ_16lightweight_muse10properties19assert_preservation
FN:178,_RNvNtCs2m0cy4S2nDJ_16lightweight_muse10properties10valid_type
FN:46,_RNvNtCs2m0cy4S2nDJ_16lightweight_muse10properties14assert_progess
FN:165,_RNvNtCs2m0cy4S2nDJ_16lightweight_muse10properties11well_formed
FNDA:108,_RNvNtCs2m0cy4S2nDJ_16lightweight_muse10properties10get_values
FNDA:70,_RNvNtCs2m0cy4S2nDJ_16lightweight_muse10properties11valid_store
FNDA:70,_RNvNtCs2m0cy4S2nDJ_16lightweight_muse10properties11valid_state
FNDA:105,_RNvNtCs2m0cy4S2nDJ_16lightweight_muse10properties16safe_abstraction
FNDA:35,_RNvNtCs2m0cy4S2nDJ_16lightweight_muse10properties19assert_preservation
FNDA:158,_RNvNtCs2m0cy4S2nDJ_16lightweight_muse10properties10valid_type
FNDA:35,_RNvNtCs2m0cy4S2nDJ_16lightweight_muse10properties14assert_progess
FNDA:70,_RNvNtCs2m0cy4S2nDJ_16lightweight_muse10properties11well_formed
FNF:8
FNH:8
DA:5,35
DA:6,35
DA:7,35
DA:8,35
DA:9,35
DA:10,0
DA:11,35
DA:12,35
DA:13,35
DA:14,0
DA:15,35
DA:16,35
DA:17,35
DA:18,0
DA:19,35
DA:21,35
DA:23,35
DA:25,35
DA:26,0
DA:27,35
DA:28,35
DA:29,35
DA:30,35
DA:31,35
DA:32,0
DA:33,0
DA:34,0
DA:36,35
DA:40,0
DA:44,35
DA:46,35
DA:47,35
DA:48,35
DA:49,35
DA:50,35
DA:51,0
DA:52,35
DA:53,35
DA:54,35
DA:55,0
DA:56,35
DA:57,35
DA:58,35
DA:59,0
DA:60,35
DA:61,35
DA:62,35
DA:64,35
DA:66,0
DA:69,35
DA:70,35
DA:74,35
DA:76,105
DA:77,105
DA:78,105
DA:79,105
DA:80,105
DA:81,105
DA:82,105
DA:83,105
DA:84,0
DA:85,0
DA:86,0
DA:87,105
DA:88,105
DA:89,103
DA:90,103
DA:91,0
DA:92,0
DA:94,0
DA:95,103
DA:97,105
DA:98,105
DA:111,70
DA:112,70
DA:113,70
DA:114,62
DA:115,0
DA:116,62
DA:117,62
DA:118,48
DA:119,14
DA:120,14
DA:121,14
DA:124,70
DA:125,70
DA:127,108
DA:128,108
DA:129,0
DA:130,0
DA:131,0
DA:133,14
DA:134,14
DA:135,14
DA:137,12
DA:138,36
DA:139,24
DA:140,24
DA:141,12
DA:144,82
DA:147,108
DA:149,70
DA:150,70
DA:151,0
DA:152,70
DA:153,70
DA:154,70
DA:155,70
DA:156,62
DA:157,0
DA:158,62
DA:161,70
DA:163,70
DA:165,70
DA:166,70
DA:167,54
DA:168,54
DA:169,6
DA:170,48
DA:173,70
DA:174,70
DA:178,158
DA:179,1
DA:180,4
DA:181,35
DA:182,88
DA:183,16
DA:184,16
DA:185,16
DA:187,14
DA:188,14
DA:189,14
DA:190,0
DA:191,14
DA:192,14
DA:194,0
DA:196,158
BRF:0
BRH:0
LF:137
LH:111
end_of_record
SF:/Users/modii/Dropbox/Development/University/year-3/lightweight-muse/src/reduction.rs
FN:10,_RNvXNtCs2m0cy4S2nDJ_16lightweight_muse9reductionNtNtB4_3ast5ValueNtB2_8Evaluate8evaluate
FN:22,_RNvXs0_NtCs2m0cy4S2nDJ_16lightweight_muse9reductionNtNtB7_3ast7ProgramNtB5_8Evaluate8evaluate
FN:16,_RNvXs_NtCs2m0cy4S2nDJ_16lightweight_muse9reductionNtNtB6_3ast4LValNtB4_8Evaluate8evaluate
FN:36,_RNvXs1_NtCs2m0cy4S2nDJ_16lightweight_muse9reductionNtNtB7_3ast4TermNtB5_8Evaluate8evaluate
FNDA:0,_RNvXNtCs2m0cy4S2nDJ_16lightweight_muse9reductionNtNtB4_3ast5ValueNtB2_8Evaluate8evaluate
FNDA:0,_RNvXs0_NtCs2m0cy4S2nDJ_16lightweight_muse9reductionNtNtB7_3ast7ProgramNtB5_8Evaluate8evaluate
FNDA:0,_RNvXs_NtCs2m0cy4S2nDJ_16lightweight_muse9reductionNtNtB6_3ast4LValNtB4_8Evaluate8evaluate
FNDA:258,_RNvXs1_NtCs2m0cy4S2nDJ_16lightweight_muse9reductionNtNtB7_3ast4TermNtB5_8Evaluate8evaluate
FNF:4
FNH:1
DA:10,0
DA:11,0
DA:12,0
DA:16,0
DA:17,0
DA:18,0
DA:22,0
DA:23,0
DA:24,0
DA:25,0
DA:26,0
DA:28,0
DA:29,0
DA:30,0
DA:31,0
DA:32,0
DA:36,258
DA:37,258
DA:38,258
DA:39,18
DA:40,18
DA:41,18
DA:42,18
DA:43,0
DA:47,18
DA:48,18
DA:49,18
DA:50,18
DA:51,18
DA:52,18
DA:54,18
DA:55,15
DA:56,3
DA:58,3
DA:59,0
DA:61,3
DA:62,3
DA:64,12
DA:67,12
DA:68,0
DA:70,12
DA:71,12
DA:73,0
DA:75,15
DA:76,15
DA:77,15
DA:79,0
DA:81,0
DA:82,0
DA:84,0
DA:87,15
DA:88,15
DA:91,18
DA:92,18
DA:93,18
DA:94,18
DA:95,18
DA:96,18
DA:97,18
DA:98,18
DA:100,18
DA:101,15
DA:102,15
DA:103,15
DA:106,18
DA:107,18
DA:108,18
DA:109,18
DA:110,54
DA:111,36
DA:112,36
DA:113,36
DA:116,18
DA:121,18
DA:122,18
DA:123,18
DA:125,0
DA:127,0
DA:128,0
DA:130,0
DA:135,18
DA:136,18
DA:137,18
DA:227,18
DA:228,18
DA:229,18
DA:230,18
DA:232,84
DA:233,84
DA:235,84
DA:236,84
DA:237,0
DA:242,84
DA:243,84
DA:247,0
DA:251,84
DA:252,84
DA:253,84
DA:254,84
DA:255,84
DA:256,84
DA:257,84
DA:259,21
DA:260,21
DA:261,21
DA:262,21
DA:263,0
DA:268,21
DA:269,21
DA:270,0
DA:281,21
DA:297,21
DA:303,21
DA:305,21
DA:320,12
DA:321,12
DA:323,12
DA:324,12
DA:325,0
DA:326,0
DA:332,12
DA:333,12
DA:334,12
DA:335,12
DA:338,18
DA:339,18
DA:342,18
DA:343,0
DA:345,18
DA:346,18
DA:349,36
DA:350,36
DA:351,36
DA:352,24
DA:355,24
DA:356,24
DA:357,12
DA:360,12
DA:361,12
DA:362,12
DA:365,12
DA:367,0
DA:370,51
DA:371,51
DA:372,51
DA:375,258
BRF:0
BRH:0
LF:146
LH:110
end_of_record
SF:/Users/modii/Dropbox/Development/University/year-3/lightweight-muse/src/run_tests.rs
FN:29,_RNCNvNtNtCs2m0cy4S2nDJ_16lightweight_muse9run_tests5tests9fn_borrow0B7_
FN:29,_RNCNvNtNtCs2m0cy4S2nDJ_16lightweight_muse9run_tests5tests19reassign_after_move0B7_
FN:29,_RNCNvNtNtCs2m0cy4S2nDJ_16lightweight_muse9run_tests5tests28function_incorrect_arg_count0B7_
FN:29,_RNCNvNtNtCs2m0cy4S2nDJ_16lightweight_muse9run_tests5tests15assign_borrowed0B7_
FN:29,_RNCNvNtNtCs2m0cy4S2nDJ_16lightweight_muse9run_tests5tests14mut_from_immut0B7_
FN:29,_RNCNvNtNtCs2m0cy4S2nDJ_16lightweight_muse9run_tests5tests10fn_inplace0B7_
FN:29,_RNCNvNtNtCs2m0cy4S2nDJ_16lightweight_muse9run_tests5tests14reassign_deref0B7_
FN:29,_RNCNvNtNtCs2m0cy4S2nDJ_16lightweight_muse9run_tests5tests16double_box_deref0B7_
FN:29,_RNCNvNtNtCs2m0cy4S2nDJ_16lightweight_muse9run_tests5tests22reassign_in_diff_scope0B7_
FN:29,_RNCNvNtNtCs2m0cy4S2nDJ_16lightweight_muse9run_tests5tests15mut_after_immut0B7_
FN:29,_RNCNvNtNtCs2m0cy4S2nDJ_16lightweight_muse9run_tests5tests14double_mut_ref0B7_
FN:29,_RNCNvNtNtCs2m0cy4S2nDJ_16lightweight_muse9run_tests5tests15immut_after_mut0B7_
FN:29,_RNCNvNtNtCs2m0cy4S2nDJ_16lightweight_muse9run_tests5tests10bad_typing0B7_
FN:29,_RNCNvNtNtCs2m0cy4S2nDJ_16lightweight_muse9run_tests5tests22dec_after_partial_move0B7_
FN:29,_RNCNvNtNtCs2m0cy4S2nDJ_16lightweight_muse9run_tests5tests30function_incorrect_return_type0B7_
FN:29,_RNCNvNtNtCs2m0cy4S2nDJ_16lightweight_muse9run_tests5tests13multiple_move0B7_
FN:29,_RNCNvNtNtCs2m0cy4S2nDJ_16lightweight_muse9run_tests5tests4swap0B7_
FN:29,_RNCNvNtNtCs2m0cy4S2nDJ_16lightweight_muse9run_tests5tests19assign_mut_borrowed0B7_
FN:29,_RNCNvNtNtCs2m0cy4S2nDJ_16lightweight_muse9run_tests5tests20fn_lifetime_transfer0B7_
FN:29,_RNCNvNtNtCs2m0cy4S2nDJ_16lightweight_muse9run_tests5tests27function_incorrect_arg_type0B7_
FN:29,_RNCNvNtNtCs2m0cy4S2nDJ_16lightweight_muse9run_tests5tests12reassign_ref0B7_
FN:22,_RNvNtNtCs2m0cy4S2nDJ_16lightweight_muse9run_tests5testss_14double_mut_ref
FN:22,_RNvNtNtCs2m0cy4S2nDJ_16lightweight_muse9run_tests5testss_15mut_after_immut
FN:22,_RNvNtNtCs2m0cy4S2nDJ_16lightweight_muse9run_tests5testss_19reassign_after_move
FN:22,_RNvNtNtCs2m0cy4S2nDJ_16lightweight_muse9run_tests5testss_28function_incorrect_arg_count
FN:22,_RNvNtNtCs2m0cy4S2nDJ_16lightweight_muse9run_tests5testss_15immut_after_mut
FN:22,_RNvNtNtCs2m0cy4S2nDJ_16lightweight_muse9run_tests5testss_15assign_borrowed
FN:22,_RNvNtNtCs2m0cy4S2nDJ_16lightweight_muse9run_tests5testss_19assign_mut_borrowed
FN:22,_RNvNtNtCs2m0cy4S2nDJ_16lightweight_muse9run_tests5testss_16double_box_deref
FN:22,_RNvNtNtCs2m0cy4S2nDJ_16lightweight_muse9run_tests5testss_9fn_borrow
FN:22,_RNvNtNtCs2m0cy4S2nDJ_16lightweight_muse9run_tests5testss_10bad_typing
FN:22,_RNvNtNtCs2m0cy4S2nDJ_16lightweight_muse9run_tests5testss_12reassign_ref
FN:22,_RNvNtNtCs2m0cy4S2nDJ_16lightweight_muse9run_tests5testss_14reassign_deref
FN:22,_RNvNtNtCs2m0cy4S2nDJ_16lightweight_muse9run_tests5testss_14mut_from_immut
FN:22,_RNvNtNtCs2m0cy4S2nDJ_16lightweight_muse9run_tests5testss_10fn_inplace
FN:22,_RNvNtNtCs2m0cy4S2nDJ_16lightweight_muse9run_tests5testss_22dec_after_partial_move
FN:22,_RNvNtNtCs2m0cy4S2nDJ_16lightweight_muse9run_tests5testss_30function_incorrect_return_type
FN:22,_RNvNtNtCs2m0cy4S2nDJ_16lightweight_muse9run_tests5testss_4swap
FN:6,_RNvNtNtCs2m0cy4S2nDJ_16lightweight_muse9run_tests5tests3run
FN:22,_RNvNtNtCs2m0cy4S2nDJ_16lightweight_muse9run_tests5testss_13multiple_move
FN:22,_RNvNtNtCs2m0cy4S2nDJ_16lightweight_muse9run_tests5testss_22reassign_in_diff_scope
FN:22,_RNvNtNtCs2m0cy4S2nDJ_16lightweight_muse9run_tests5testss_20fn_lifetime_transfer
FN:22,_RNvNtNtCs2m0cy4S2nDJ_16lightweight_muse9run_tests5testss_27function_incorrect_arg_type
FNDA:1,_RNCNvNtNtCs2m0cy4S2nDJ_16lightweight_muse9run_tests5tests9fn_borrow0B7_
FNDA:1,_RNCNvNtNtCs2m0cy4S2nDJ_16lightweight_muse9run_tests5tests19reassign_after_move0B7_
FNDA:1,_RNCNvNtNtCs2m0cy4S2nDJ_16lightweight_muse9run_tests5tests28function_incorrect_arg_count0B7_
FNDA:1,_RNCNvNtNtCs2m0cy4S2nDJ_16lightweight_muse9run_tests5tests15assign_borrowed0B7_
FNDA:1,_RNCNvNtNtCs2m0cy4S2nDJ_16lightweight_muse9run_tests5tests14mut_from_immut0B7_
FNDA:1,_RNCNvNtNtCs2m0cy4S2nDJ_16lightweight_muse9run_tests5tests10fn_inplace0B7_
FNDA:1,_RNCNvNtNtCs2m0cy4S2nDJ_16lightweight_muse9run_tests5tests14reassign_deref0B7_
FNDA:1,_RNCNvNtNtCs2m0cy4S2nDJ_16lightweight_muse9run_tests5tests16double_box_deref0B7_
FNDA:1,_RNCNvNtNtCs2m0cy4S2nDJ_16lightweight_muse9run_tests5tests22reassign_in_diff_scope0B7_
FNDA:1,_RNCNvNtNtCs2m0cy4S2nDJ_16lightweight_muse9run_tests5tests15mut_after_immut0B7_
FNDA:1,_RNCNvNtNtCs2m0cy4S2nDJ_16lightweight_muse9run_tests5tests14double_mut_ref0B7_
FNDA:1,_RNCNvNtNtCs2m0cy4S2nDJ_16lightweight_muse9run_tests5tests15immut_after_mut0B7_
FNDA:1,_RNCNvNtNtCs2m0cy4S2nDJ_16lightweight_muse9run_tests5tests10bad_typing0B7_
FNDA:1,_RNCNvNtNtCs2m0cy4S2nDJ_16lightweight_muse9run_tests5tests22dec_after_partial_move0B7_
FNDA:1,_RNCNvNtNtCs2m0cy4S2nDJ_16lightweight_muse9run_tests5tests30function_incorrect_return_type0B7_
FNDA:1,_RNCNvNtNtCs2m0cy4S2nDJ_16lightweight_muse9run_tests5tests13multiple_move0B7_
FNDA:1,_RNCNvNtNtCs2m0cy4S2nDJ_16lightweight_muse9run_tests5tests4swap0B7_
FNDA:1,_RNCNvNtNtCs2m0cy4S2nDJ_16lightweight_muse9run_tests5tests19assign_mut_borrowed0B7_
FNDA:1,_RNCNvNtNtCs2m0cy4S2nDJ_16lightweight_muse9run_tests5tests20fn_lifetime_transfer0B7_
FNDA:1,_RNCNvNtNtCs2m0cy4S2nDJ_16lightweight_muse9run_tests5tests27function_incorrect_arg_type0B7_
FNDA:1,_RNCNvNtNtCs2m0cy4S2nDJ_16lightweight_muse9run_tests5tests12reassign_ref0B7_
FNDA:1,_RNvNtNtCs2m0cy4S2nDJ_16lightweight_muse9run_tests5testss_14double_mut_ref
FNDA:1,_RNvNtNtCs2m0cy4S2nDJ_16lightweight_muse9run_tests5testss_15mut_after_immut
FNDA:1,_RNvNtNtCs2m0cy4S2nDJ_16lightweight_muse9run_tests5testss_19reassign_after_move
FNDA:1,_RNvNtNtCs2m0cy4S2nDJ_16lightweight_muse9run_tests5testss_28function_incorrect_arg_count
FNDA:1,_RNvNtNtCs2m0cy4S2nDJ_16lightweight_muse9run_tests5testss_15immut_after_mut
FNDA:1,_RNvNtNtCs2m0cy4S2nDJ_16lightweight_muse9run_tests5testss_15assign_borrowed
FNDA:1,_RNvNtNtCs2m0cy4S2nDJ_16lightweight_muse9run_tests5testss_19assign_mut_borrowed
FNDA:1,_RNvNtNtCs2m0cy4S2nDJ_16lightweight_muse9run_tests5testss_16double_box_deref
FNDA:1,_RNvNtNtCs2m0cy4S2nDJ_16lightweight_muse9run_tests5testss_9fn_borrow
FNDA:1,_RNvNtNtCs2m0cy4S2nDJ_16lightweight_muse9run_tests5testss_10bad_typing
FNDA:1,_RNvNtNtCs2m0cy4S2nDJ_16lightweight_muse9run_tests5testss_12reassign_ref
FNDA:1,_RNvNtNtCs2m0cy4S2nDJ_16lightweight_muse9run_tests5testss_14reassign_deref
FNDA:1,_RNvNtNtCs2m0cy4S2nDJ_16lightweight_muse9run_tests5testss_14mut_from_immut
FNDA:1,_RNvNtNtCs2m0cy4S2nDJ_16lightweight_muse9run_tests5testss_10fn_inplace
FNDA:1,_RNvNtNtCs2m0cy4S2nDJ_16lightweight_muse9run_tests5testss_22dec_after_partial_move
FNDA:1,_RNvNtNtCs2m0cy4S2nDJ_16lightweight_muse9run_tests5testss_30function_incorrect_return_type
FNDA:1,_RNvNtNtCs2m0cy4S2nDJ_16lightweight_muse9run_tests5testss_4swap
FNDA:21,_RNvNtNtCs2m0cy4S2nDJ_16lightweight_muse9run_tests5tests3run
FNDA:1,_RNvNtNtCs2m0cy4S2nDJ_16lightweight_muse9run_tests5testss_13multiple_move
FNDA:1,_RNvNtNtCs2m0cy4S2nDJ_16lightweight_muse9run_tests5testss_22reassign_in_diff_scope
FNDA:1,_RNvNtNtCs2m0cy4S2nDJ_16lightweight_muse9run_tests5testss_20fn_lifetime_transfer
FNDA:1,_RNvNtNtCs2m0cy4S2nDJ_16lightweight_muse9run_tests5testss_27function_incorrect_arg_type
FNF:3
FNH:3
DA:6,21
DA:7,21
DA:8,21
DA:9,21
DA:10,21
DA:11,21
DA:12,21
DA:13,21
DA:14,21
DA:15,21
DA:22,21
DA:23,21
DA:24,21
DA:29,21
DA:30,21
DA:31,21
DA:32,21
DA:33,21
DA:34,21
DA:35,21
DA:36,21
DA:37,21
DA:38,21
DA:39,21
DA:40,21
DA:41,21
DA:42,21
DA:43,21
DA:44,21
DA:45,21
DA:46,21
DA:47,21
DA:48,21
DA:49,21
DA:50,21
DA:51,21
DA:52,21
DA:53,21
DA:54,21
BRF:0
BRH:0
LF:39
LH:39
end_of_record
SF:/Users/modii/Dropbox/Development/University/year-3/lightweight-muse/src/state.rs
FN:240,_RNvMs_NtCs2m0cy4S2nDJ_16lightweight_muse5stateNtB4_5State12add_function
FN:124,_RNvMs_NtCs2m0cy4S2nDJ_16lightweight_muse5stateNtB4_5State3new
FN:256,_RNvNtCs2m0cy4S2nDJ_16lightweight_muse5state3loc
FN:285,_RNvNtCs2m0cy4S2nDJ_16lightweight_muse5state5write
FN:299,_RNvNtCs2m0cy4S2nDJ_16lightweight_muse5state4bind
FN:22,_RNvMNtCs2m0cy4S2nDJ_16lightweight_muse5stateNtB2_5Store3new
FN:311,_RNvNtCs2m0cy4S2nDJ_16lightweight_muse5state13drop_lifetime
FN:109,_RNvMNtCs2m0cy4S2nDJ_16lightweight_muse5stateNtB2_5Store3get
FN:84,_RNvMNtCs2m0cy4S2nDJ_16lightweight_muse5stateNtB2_5Store13drop_lifetime
FN:227,_RNvMs_NtCs2m0cy4S2nDJ_16lightweight_muse5stateNtB4_5State7top_mut
FN:149,_RNvMs_NtCs2m0cy4S2nDJ_16lightweight_muse5stateNtB4_5State6locate
FN:5,_RNvXs0_NtCs2m0cy4S2nDJ_16lightweight_muse5stateNtB5_10StackFrameNtNtCse53whbGO0JW_4core3fmt5Debug3fmt
FN:5,_RNvXs1_NtCs2m0cy4S2nDJ_16lightweight_muse5stateNtB5_10StackFrameNtNtCse53whbGO0JW_4core5clone5Clone5cloneB7_
FN:282,_RNvNtCs2m0cy4S2nDJ_16lightweight_muse5state4read
FN:28,_RNvMNtCs2m0cy4S2nDJ_16lightweight_muse5stateNtB2_5Store8allocate
FN:12,_RNvXs2_NtCs2m0cy4S2nDJ_16lightweight_muse5stateNtB5_5StoreNtNtCse53whbGO0JW_4core3fmt5Debug3fmt
FN:12,_RNvXs3_NtCs2m0cy4S2nDJ_16lightweight_muse5stateNtB5_5StoreNtNtCse53whbGO0JW_4core5clone5Clone5cloneB7_
FN:305,_RNvNtCs2m0cy4S2nDJ_16lightweight_muse5state4drop
FN:94,_RNvMNtCs2m0cy4S2nDJ_16lightweight_muse5stateNtB2_5Store4drop
FN:59,_RNvMNtCs2m0cy4S2nDJ_16lightweight_muse5stateNtB2_5Store5write
FN:221,_RNvMs_NtCs2m0cy4S2nDJ_16lightweight_muse5stateNtB4_5State3top
FN:251,_RNvNtCs2m0cy4S2nDJ_16lightweight_muse5state12add_function
FN:131,_RNvMs_NtCs2m0cy4S2nDJ_16lightweight_muse5stateNtB4_5State5print
FN:157,_RNvMs_NtCs2m0cy4S2nDJ_16lightweight_muse5stateNtB4_5State3dom
FN:292,_RNvNtCs2m0cy4S2nDJ_16lightweight_muse5state6insert
FN:18,_RNvNtCs2m0cy4S2nDJ_16lightweight_muse5state6get_id
FN:115,_RNvXs5_NtCs2m0cy4S2nDJ_16lightweight_muse5stateNtB5_5StateNtNtCse53whbGO0JW_4core5clone5Clone5cloneB7_
FN:115,_RNvXs4_NtCs2m0cy4S2nDJ_16lightweight_muse5stateNtB5_5StateNtNtCse53whbGO0JW_4core3fmt5Debug3fmt
FN:45,_RNvMNtCs2m0cy4S2nDJ_16lightweight_muse5stateNtB2_5Store4read
FN:236,_RNvMs_NtCs2m0cy4S2nDJ_16lightweight_muse5stateNtB4_5State3pop
FN:232,_RNvMs_NtCs2m0cy4S2nDJ_16lightweight_muse5stateNtB4_5State4push
FNDA:18,_RNvMs_NtCs2m0cy4S2nDJ_16lightweight_muse5stateNtB4_5State12add_function
FNDA:21,_RNvMs_NtCs2m0cy4S2nDJ_16lightweight_muse5stateNtB4_5State3new
FNDA:123,_RNvNtCs2m0cy4S2nDJ_16lightweight_muse5state3loc
FNDA:33,_RNvNtCs2m0cy4S2nDJ_16lightweight_muse5state5write
FNDA:99,_RNvNtCs2m0cy4S2nDJ_16lightweight_muse5state4bind
FNDA:21,_RNvMNtCs2m0cy4S2nDJ_16lightweight_muse5stateNtB2_5Store3new
FNDA:18,_RNvNtCs2m0cy4S2nDJ_16lightweight_muse5state13drop_lifetime
FNDA:161,_RNvMNtCs2m0cy4S2nDJ_16lightweight_muse5stateNtB2_5Store3get
FNDA:18,_RNvMNtCs2m0cy4S2nDJ_16lightweight_muse5stateNtB2_5Store13drop_lifetime
FNDA:117,_RNvMs_NtCs2m0cy4S2nDJ_16lightweight_muse5stateNtB4_5State7top_mut
FNDA:240,_RNvMs_NtCs2m0cy4S2nDJ_16lightweight_muse5stateNtB4_5State6locate
FNDA:140,_RNvXs0_NtCs2m0cy4S2nDJ_16lightweight_muse5stateNtB5_10StackFrameNtNtCse53whbGO0JW_4core3fmt5Debug3fmt
FNDA:386,_RNvXs1_NtCs2m0cy4S2nDJ_16lightweight_muse5stateNtB5_10StackFrameNtNtCse53whbGO0JW_4core5clone5Clone5cloneB7_
FNDA:57,_RNvNtCs2m0cy4S2nDJ_16lightweight_muse5state4read
FNDA:111,_RNvMNtCs2m0cy4S2nDJ_16lightweight_muse5stateNtB2_5Store8allocate
FNDA:140,_RNvXs2_NtCs2m0cy4S2nDJ_16lightweight_muse5stateNtB5_5StoreNtNtCse53whbGO0JW_4core3fmt5Debug3fmt
FNDA:386,_RNvXs3_NtCs2m0cy4S2nDJ_16lightweight_muse5stateNtB5_5StoreNtNtCse53whbGO0JW_4core5clone5Clone5cloneB7_
FNDA:21,_RNvNtCs2m0cy4S2nDJ_16lightweight_muse5state4drop
FNDA:21,_RNvMNtCs2m0cy4S2nDJ_16lightweight_muse5stateNtB2_5Store4drop
FNDA:33,_RNvMNtCs2m0cy4S2nDJ_16lightweight_muse5stateNtB2_5Store5write
FNDA:276,_RNvMs_NtCs2m0cy4S2nDJ_16lightweight_muse5stateNtB4_5State3top
FNDA:18,_RNvNtCs2m0cy4S2nDJ_16lightweight_muse5state12add_function
FNDA:11,_RNvMs_NtCs2m0cy4S2nDJ_16lightweight_muse5stateNtB4_5State5print
FNDA:105,_RNvMs_NtCs2m0cy4S2nDJ_16lightweight_muse5stateNtB4_5State3dom
FNDA:111,_RNvNtCs2m0cy4S2nDJ_16lightweight_muse5state6insert
FNDA:111,_RNvNtCs2m0cy4S2nDJ_16lightweight_muse5state6get_id
FNDA:386,_RNvXs5_NtCs2m0cy4S2nDJ_16lightweight_muse5stateNtB5_5StateNtNtCse53whbGO0JW_4core5clone5Clone5cloneB7_
FNDA:140,_RNvXs4_NtCs2m0cy4S2nDJ_16lightweight_muse5stateNtB5_5StateNtNtCse53whbGO0JW_4core3fmt5Debug3fmt
FNDA:90,_RNvMNtCs2m0cy4S2nDJ_16lightweight_muse5stateNtB2_5Store4read
FNDA:0,_RNvMs_NtCs2m0cy4S2nDJ_16lightweight_muse5stateNtB4_5State3pop
FNDA:0,_RNvMs_NtCs2m0cy4S2nDJ_16lightweight_muse5stateNtB4_5State4push
FNF:31
FNH:29
DA:5,386
DA:12,386
DA:18,111
DA:22,21
DA:23,21
DA:24,21
DA:25,21
DA:26,21
DA:28,111
DA:29,111
DA:30,111
DA:31,111
DA:32,111
DA:33,111
DA:34,111
DA:35,111
DA:36,111
DA:37,111
DA:38,111
DA:39,111
DA:40,111
DA:41,111
DA:42,111
DA:43,111
DA:45,90
DA:46,90
DA:47,90
DA:48,90
DA:49,90
DA:50,90
DA:51,90
DA:52,90
DA:53,90
DA:54,90
DA:55,90
DA:56,90
DA:57,90
DA:59,33
DA:60,33
DA:61,33
DA:62,33
DA:63,33
DA:64,33
DA:65,33
DA:66,33
DA:67,33
DA:84,18
DA:85,18
DA:86,18
DA:87,75
DA:88,57
DA:89,33
DA:90,33
DA:92,18
DA:94,21
DA:95,21
DA:96,3
DA:97,3
DA:98,0
DA:99,0
DA:100,0
DA:101,0
DA:102,3
DA:104,18
DA:106,21
DA:107,21
DA:109,161
DA:110,161
DA:111,161
DA:115,386
DA:124,21
DA:125,21
DA:126,21
DA:127,21
DA:128,21
DA:129,21
DA:131,11
DA:132,22
DA:133,33
DA:134,22
DA:135,22
DA:136,33
DA:137,11
DA:138,11
DA:139,11
DA:140,11
DA:142,22
DA:143,11
DA:144,22
DA:147,11
DA:149,240
DA:150,240
DA:151,240
DA:152,0
DA:154,240
DA:157,105
DA:158,105
DA:159,105
DA:160,210
DA:161,105
DA:162,103
DA:163,0
DA:164,103
DA:165,103
DA:166,103
DA:169,105
DA:170,105
DA:221,276
DA:222,276
DA:223,276
DA:224,276
DA:225,276
DA:227,117
DA:228,117
DA:229,117
DA:230,117
DA:232,0
DA:233,0
DA:234,0
DA:236,0
DA:237,0
DA:238,0
DA:240,18
DA:241,18
DA:242,18
DA:251,18
DA:252,18
DA:253,18
DA:254,18
DA:256,123
DA:257,123
DA:258,123
DA:259,123
DA:260,123
DA:261,81
DA:262,81
DA:264,42
DA:265,42
DA:267,42
DA:270,42
DA:271,42
DA:272,42
DA:273,42
DA:274,0
DA:278,123
DA:282,57
DA:283,57
DA:285,33
DA:286,33
DA:287,33
DA:289,33
DA:290,33
DA:292,111
DA:293,111
DA:294,111
DA:295,111
DA:296,111
DA:297,111
DA:299,99
DA:300,99
DA:301,99
DA:302,99
DA:303,99
DA:305,21
DA:306,21
DA:307,21
DA:308,21
DA:309,21
DA:311,18
DA:312,18
DA:313,18
DA:314,18
DA:315,18
DA:316,18
DA:317,18
BRF:0
BRH:0
LF:178
LH:165
end_of_record
SF:/Users/modii/Dropbox/Development/University/year-3/lightweight-muse/src/token.rs
FN:31,_RNvXs8_NtCs2m0cy4S2nDJ_16lightweight_muse5tokenNtB5_5TokenNtNtCse53whbGO0JW_4core3cmp9PartialEq2eqB7_
FN:1,_RNvXs1_NtCs2m0cy4S2nDJ_16lightweight_muse5tokenNtB5_9TokenKindNtNtCse53whbGO0JW_4core5clone5Clone5cloneB7_
FN:31,_RNvXs9_NtCs2m0cy4S2nDJ_16lightweight_muse5tokenNtB5_5TokenNtNtCse53whbGO0JW_4core5clone5Clone5cloneB7_
FN:31,_RNvXs6_NtCs2m0cy4S2nDJ_16lightweight_muse5tokenNtB5_5TokenNtNtCse53whbGO0JW_4core3fmt5Debug3fmt
FN:25,_RNvXs4_NtCs2m0cy4S2nDJ_16lightweight_muse5tokenNtB5_8LocationNtNtCse53whbGO0JW_4core3cmp9PartialEq2eqB7_
FN:25,_RNvXs5_NtCs2m0cy4S2nDJ_16lightweight_muse5tokenNtB5_8LocationNtNtCse53whbGO0JW_4core5clone5Clone5cloneB7_
FN:25,_RNvXs2_NtCs2m0cy4S2nDJ_16lightweight_muse5tokenNtB5_8LocationNtNtCse53whbGO0JW_4core3fmt5Debug3fmt
FN:1,_RNvXNtCs2m0cy4S2nDJ_16lightweight_muse5tokenNtB2_9TokenKindNtNtCse53whbGO0JW_4core3fmt5Debug3fmt
FN:1,_RNvXs0_NtCs2m0cy4S2nDJ_16lightweight_muse5tokenNtB5_9TokenKindNtNtCse53whbGO0JW_4core3cmp9PartialEq2eqB7_
FNDA:0,_RNvXs8_NtCs2m0cy4S2nDJ_16lightweight_muse5tokenNtB5_5TokenNtNtCse53whbGO0JW_4core3cmp9PartialEq2eqB7_
FNDA:0,_RNvXs1_NtCs2m0cy4S2nDJ_16lightweight_muse5tokenNtB5_9TokenKindNtNtCse53whbGO0JW_4core5clone5Clone5cloneB7_
FNDA:0,_RNvXs9_NtCs2m0cy4S2nDJ_16lightweight_muse5tokenNtB5_5TokenNtNtCse53whbGO0JW_4core5clone5Clone5cloneB7_
FNDA:0,_RNvXs6_NtCs2m0cy4S2nDJ_16lightweight_muse5tokenNtB5_5TokenNtNtCse53whbGO0JW_4core3fmt5Debug3fmt
FNDA:0,_RNvXs4_NtCs2m0cy4S2nDJ_16lightweight_muse5tokenNtB5_8LocationNtNtCse53whbGO0JW_4core3cmp9PartialEq2eqB7_
FNDA:0,_RNvXs5_NtCs2m0cy4S2nDJ_16lightweight_muse5tokenNtB5_8LocationNtNtCse53whbGO0JW_4core5clone5Clone5cloneB7_
FNDA:0,_RNvXs2_NtCs2m0cy4S2nDJ_16lightweight_muse5tokenNtB5_8LocationNtNtCse53whbGO0JW_4core3fmt5Debug3fmt
FNDA:7,_RNvXNtCs2m0cy4S2nDJ_16lightweight_muse5tokenNtB2_9TokenKindNtNtCse53whbGO0JW_4core3fmt5Debug3fmt
FNDA:801,_RNvXs0_NtCs2m0cy4S2nDJ_16lightweight_muse5tokenNtB5_9TokenKindNtNtCse53whbGO0JW_4core3cmp9PartialEq2eqB7_
FNF:9
FNH:2
DA:1,801
DA:25,0
DA:31,0
BRF:0
BRH:0
LF:9
LH:2
end_of_record
SF:/Users/modii/Dropbox/Development/University/year-3/lightweight-muse/src/typecheck.rs
FN:99,_RNCNvXs1_NtCs2m0cy4S2nDJ_16lightweight_muse9typecheckNtNtB9_3ast4TermNtB7_9TypeCheck10type_check0B9_
FN:107,_RNCNvXs1_NtCs2m0cy4S2nDJ_16lightweight_muse9typecheckNtNtB9_3ast4TermNtB7_9TypeCheck10type_checks_0B9_
FN:22,_RNvXs_NtCs2m0cy4S2nDJ_16lightweight_muse9typecheckNtNtB6_3ast4LValNtB4_9TypeCheck10type_check
FN:51,_RNvXs0_NtCs2m0cy4S2nDJ_16lightweight_muse9typecheckNtNtB7_3ast7ProgramNtB5_9TypeCheck10type_check
FN:64,_RNvXs1_NtCs2m0cy4S2nDJ_16lightweight_muse9typecheckNtNtB7_3ast4TermNtB5_9TypeCheck10type_check
FN:11,_RNvXNtCs2m0cy4S2nDJ_16lightweight_muse9typecheckNtNtB4_3ast5ValueNtB2_9TypeCheck10type_check
FNDA:23,_RNCNvXs1_NtCs2m0cy4S2nDJ_16lightweight_muse9typecheckNtNtB9_3ast4TermNtB7_9TypeCheck10type_check0B9_
FNDA:23,_RNCNvXs1_NtCs2m0cy4S2nDJ_16lightweight_muse9typecheckNtNtB9_3ast4TermNtB7_9TypeCheck10type_checks_0B9_
FNDA:111,_RNvXs_NtCs2m0cy4S2nDJ_16lightweight_muse9typecheckNtNtB6_3ast4LValNtB4_9TypeCheck10type_check
FNDA:21,_RNvXs0_NtCs2m0cy4S2nDJ_16lightweight_muse9typecheckNtNtB7_3ast7ProgramNtB5_9TypeCheck10type_check
FNDA:426,_RNvXs1_NtCs2m0cy4S2nDJ_16lightweight_muse9typecheckNtNtB7_3ast4TermNtB5_9TypeCheck10type_check
FNDA:80,_RNvXNtCs2m0cy4S2nDJ_16lightweight_muse9typecheckNtNtB4_3ast5ValueNtB2_9TypeCheck10type_check
FNF:6
FNH:6
DA:11,80
DA:12,80
DA:13,80
DA:16,0
DA:18,80
DA:22,111
DA:23,111
DA:24,78
DA:25,78
DA:26,77
DA:28,33
DA:29,33
DA:32,33
DA:33,28
DA:34,28
DA:35,28
DA:37,5
DA:38,0
DA:47,111
DA:51,21
DA:52,21
DA:53,21
DA:54,74
DA:55,63
DA:56,53
DA:57,53
DA:59,11
DA:60,21
DA:64,426
DA:65,426
DA:66,26
DA:67,26
DA:68,26
DA:69,26
DA:70,26
DA:71,26
DA:72,26
DA:73,1
DA:74,25
DA:75,25
DA:76,25
DA:77,21
DA:78,21
DA:80,1
DA:81,20
DA:82,20
DA:85,24
DA:86,8
DA:87,16
DA:90,0
DA:93,27
DA:94,27
DA:95,27
DA:96,27
DA:97,27
DA:98,27
DA:99,27
DA:101,27
DA:102,23
DA:103,0
DA:104,23
DA:107,27
DA:108,27
DA:109,27
DA:110,27
DA:113,50
DA:114,23
DA:115,3
DA:116,3
DA:117,3
DA:118,0
DA:119,0
DA:120,0
DA:121,20
DA:122,20
DA:123,20
DA:124,20
DA:125,20
DA:126,20
DA:127,20
DA:128,20
DA:129,20
DA:130,20
DA:131,20
DA:132,20
DA:133,20
DA:134,20
DA:141,27
DA:142,78
DA:143,51
DA:144,51
DA:145,51
DA:149,27
DA:150,9
DA:151,9
DA:152,1
DA:153,8
DA:155,18
DA:158,26
DA:160,74
DA:161,74
DA:165,73
DA:166,73
DA:167,73
DA:168,73
DA:169,73
DA:170,73
DA:171,73
DA:172,73
DA:173,73
DA:174,73
DA:175,73
DA:176,73
DA:177,73
DA:178,73
DA:179,73
DA:180,73
DA:181,73
DA:182,73
DA:183,73
DA:184,73
DA:185,73
DA:186,73
DA:187,73
DA:188,73
DA:189,73
DA:190,73
DA:191,73
DA:192,73
DA:193,73
DA:194,73
DA:195,73
DA:196,73
DA:197,73
DA:198,73
DA:199,73
DA:200,73
DA:201,73
DA:202,73
DA:203,73
DA:204,73
DA:205,51
DA:206,51
DA:207,0
DA:208,51
DA:209,51
DA:212,22
DA:213,22
DA:214,0
DA:215,22
DA:216,22
DA:217,22
DA:218,22
DA:221,80
DA:222,80
DA:223,80
DA:225,21
DA:226,21
DA:227,21
DA:229,33
DA:230,33
DA:231,13
DA:232,2
DA:233,11
DA:234,11
DA:235,1
DA:236,10
DA:237,10
DA:238,10
DA:239,10
DA:240,10
DA:242,20
DA:243,0
DA:244,20
DA:245,20
DA:246,20
DA:247,20
DA:248,20
DA:251,134
DA:252,134
DA:253,134
DA:254,0
DA:255,134
DA:256,134
DA:258,130
DA:259,0
DA:260,130
DA:261,130
DA:262,130
DA:263,130
DA:264,130
DA:266,31
DA:267,31
DA:269,31
DA:273,31
DA:277,31
DA:278,1
DA:279,30
DA:280,30
DA:281,30
DA:282,0
DA:283,30
DA:287,30
DA:291,30
DA:292,2
DA:293,28
DA:294,28
DA:297,426
BRF:0
BRH:0
LF:210
LH:197
end_of_record
SF:/Users/modii/Dropbox/Development/University/year-3/lightweight-muse/src/typing.rs
FN:347,_RNvNtCs2m0cy4S2nDJ_16lightweight_muse6typing3dom
FN:39,_RNvMNtCs2m0cy4S2nDJ_16lightweight_muse6typingNtB2_4Type17prohibits_reading
FN:277,_RNvNtCs2m0cy4S2nDJ_16lightweight_muse6typing4root
FN:312,_RNvNtCs2m0cy4S2nDJ_16lightweight_muse6typing15read_prohibited
FN:332,_RNvNtCs2m0cy4S2nDJ_16lightweight_muse6typing8undefine
FN:225,_RNvMs_NtCs2m0cy4S2nDJ_16lightweight_muse6typingNtB4_14TypeEnviroment10get_atomic
FN:470,_RNvNtCs2m0cy4S2nDJ_16lightweight_muse6typing8contains
FN:59,_RNvMNtCs2m0cy4S2nDJ_16lightweight_muse6typingNtB2_4Type6within
FN:206,_RNvXs7_NtCs2m0cy4S2nDJ_16lightweight_muse6typingNtB5_14TypeEnviromentNtNtCse53whbGO0JW_4core5clone5Clone5cloneB7_
FN:14,_RNvXs5_NtCs2m0cy4S2nDJ_16lightweight_muse6typingNtB5_4TypeNtNtCse53whbGO0JW_4core3cmp9PartialEq2eqB7_
FN:364,_RNvNtCs2m0cy4S2nDJ_16lightweight_muse6typing4__mut
FN:31,_RNvMNtCs2m0cy4S2nDJ_16lightweight_muse6typingNtB2_4Type8copyable
FN:323,_RNvNtCs2m0cy4S2nDJ_16lightweight_muse6typing8move_var
FN:14,_RNvXs2_NtCs2m0cy4S2nDJ_16lightweight_muse6typingNtB5_4TypeNtNtCse53whbGO0JW_4core3fmt5Debug3fmt
FN:251,_RNvMs_NtCs2m0cy4S2nDJ_16lightweight_muse6typingNtB4_14TypeEnviroment3get
FN:260,_RNvMs_NtCs2m0cy4S2nDJ_16lightweight_muse6typingNtB4_14TypeEnviroment3dom
FN:452,_RNvNtCs2m0cy4S2nDJ_16lightweight_muse6typing5write
FN:212,_RNvMs_NtCs2m0cy4S2nDJ_16lightweight_muse6typingNtB4_14TypeEnviroment3new
FN:70,_RNvMNtCs2m0cy4S2nDJ_16lightweight_muse6typingNtB2_4Type9to_string
FN:352,_RNvNtCs2m0cy4S2nDJ_16lightweight_muse6typing16shape_compatible
FN:384,_RNvNtCs2m0cy4S2nDJ_16lightweight_muse6typing6update
FN:14,_RNvXs3_NtCs2m0cy4S2nDJ_16lightweight_muse6typingNtB5_4TypeNtNtCse53whbGO0JW_4core5clone5Clone5cloneB7_
FN:299,_RNvNtCs2m0cy4S2nDJ_16lightweight_muse6typing16write_prohibited
FN:206,_RNvXs6_NtCs2m0cy4S2nDJ_16lightweight_muse6typingNtB5_14TypeEnviromentNtNtCse53whbGO0JW_4core3fmt5Debug3fmt
FN:256,_RNvMs_NtCs2m0cy4S2nDJ_16lightweight_muse6typingNtB4_14TypeEnviroment6insert
FN:49,_RNvMNtCs2m0cy4S2nDJ_16lightweight_muse6typingNtB2_4Type17prohibits_writing
FN:218,_RNvMs_NtCs2m0cy4S2nDJ_16lightweight_muse6typingNtB4_14TypeEnviroment11get_partial
FN:5,_RNvXs0_NtCs2m0cy4S2nDJ_16lightweight_muse6typingINtB5_4SlotNtB5_4TypeENtNtCse53whbGO0JW_4core3fmt5Debug3fmtB7_
FN:273,_RNCNvMs_NtCs2m0cy4S2nDJ_16lightweight_muse6typingNtB6_14TypeEnviroment3doms_0B8_
FN:5,_RNvXs0_NtCs2m0cy4S2nDJ_16lightweight_muse6typingINtB5_4SlotNtNtB7_3ast5ValueENtNtCse53whbGO0JW_4core3fmt5Debug3fmtB7_
FN:348,_RNCNvNtCs2m0cy4S2nDJ_16lightweight_muse6typing3dom0B5_
FN:262,_RNCNvMs_NtCs2m0cy4S2nDJ_16lightweight_muse6typingNtB6_14TypeEnviroment3dom0B8_
FN:5,_RNvXs1_NtCs2m0cy4S2nDJ_16lightweight_muse6typingINtB5_4SlotNtB5_4TypeENtNtCse53whbGO0JW_4core5clone5Clone5cloneB7_
FN:5,_RNvXs1_NtCs2m0cy4S2nDJ_16lightweight_muse6typingINtB5_4SlotNtNtB7_3ast5ValueENtNtCse53whbGO0JW_4core5clone5Clone5cloneB7_
FNDA:134,_RNvNtCs2m0cy4S2nDJ_16lightweight_muse6typing3dom
FNDA:210,_RNvMNtCs2m0cy4S2nDJ_16lightweight_muse6typingNtB2_4Type17prohibits_reading
FNDA:136,_RNvNtCs2m0cy4S2nDJ_16lightweight_muse6typing4root
FNDA:71,_RNvNtCs2m0cy4S2nDJ_16lightweight_muse6typing15read_prohibited
FNDA:27,_RNvNtCs2m0cy4S2nDJ_16lightweight_muse6typing8undefine
FNDA:230,_RNvMs_NtCs2m0cy4S2nDJ_16lightweight_muse6typingNtB4_14TypeEnviroment10get_atomic
FNDA:60,_RNvNtCs2m0cy4S2nDJ_16lightweight_muse6typing8contains
FNDA:30,_RNvMNtCs2m0cy4S2nDJ_16lightweight_muse6typingNtB2_4Type6within
FNDA:299,_RNvXs7_NtCs2m0cy4S2nDJ_16lightweight_muse6typingNtB5_14TypeEnviromentNtNtCse53whbGO0JW_4core5clone5Clone5cloneB7_
FNDA:13,_RNvXs5_NtCs2m0cy4S2nDJ_16lightweight_muse6typingNtB5_4TypeNtNtCse53whbGO0JW_4core3cmp9PartialEq2eqB7_
FNDA:11,_RNvNtCs2m0cy4S2nDJ_16lightweight_muse6typing4__mut
FNDA:166,_RNvMNtCs2m0cy4S2nDJ_16lightweight_muse6typingNtB2_4Type8copyable
FNDA:22,_RNvNtCs2m0cy4S2nDJ_16lightweight_muse6typing8move_var
FNDA:705,_RNvXs2_NtCs2m0cy4S2nDJ_16lightweight_muse6typingNtB5_4TypeNtNtCse53whbGO0JW_4core3fmt5Debug3fmt
FNDA:230,_RNvMs_NtCs2m0cy4S2nDJ_16lightweight_muse6typingNtB4_14TypeEnviroment3get
FNDA:280,_RNvMs_NtCs2m0cy4S2nDJ_16lightweight_muse6typingNtB4_14TypeEnviroment3dom
FNDA:50,_RNvNtCs2m0cy4S2nDJ_16lightweight_muse6typing5write
FNDA:21,_RNvMs_NtCs2m0cy4S2nDJ_16lightweight_muse6typingNtB4_14TypeEnviroment3new
FNDA:22,_RNvMNtCs2m0cy4S2nDJ_16lightweight_muse6typingNtB2_4Type9to_string
FNDA:56,_RNvNtCs2m0cy4S2nDJ_16lightweight_muse6typing16shape_compatible
FNDA:50,_RNvNtCs2m0cy4S2nDJ_16lightweight_muse6typing6update
FNDA:3324,_RNvXs3_NtCs2m0cy4S2nDJ_16lightweight_muse6typingNtB5_4TypeNtNtCse53whbGO0JW_4core5clone5Clone5cloneB7_
FNDA:65,_RNvNtCs2m0cy4S2nDJ_16lightweight_muse6typing16write_prohibited
FNDA:173,_RNvXs6_NtCs2m0cy4S2nDJ_16lightweight_muse6typingNtB5_14TypeEnviromentNtNtCse53whbGO0JW_4core3fmt5Debug3fmt
FNDA:272,_RNvMs_NtCs2m0cy4S2nDJ_16lightweight_muse6typingNtB4_14TypeEnviroment6insert
FNDA:232,_RNvMNtCs2m0cy4S2nDJ_16lightweight_muse6typingNtB2_4Type17prohibits_writing
FNDA:793,_RNvMs_NtCs2m0cy4S2nDJ_16lightweight_muse6typingNtB4_14TypeEnviroment11get_partial
FNDA:273,_RNvXs0_NtCs2m0cy4S2nDJ_16lightweight_muse6typingINtB5_4SlotNtB5_4TypeENtNtCse53whbGO0JW_4core3fmt5Debug3fmtB7_
FNDA:260,_RNCNvMs_NtCs2m0cy4S2nDJ_16lightweight_muse6typingNtB6_14TypeEnviroment3doms_0B8_
FNDA:150,_RNvXs0_NtCs2m0cy4S2nDJ_16lightweight_muse6typingINtB5_4SlotNtNtB7_3ast5ValueENtNtCse53whbGO0JW_4core3fmt5Debug3fmtB7_
FNDA:179,_RNCNvNtCs2m0cy4S2nDJ_16lightweight_muse6typing3dom0B5_
FNDA:384,_RNCNvMs_NtCs2m0cy4S2nDJ_16lightweight_muse6typingNtB6_14TypeEnviroment3dom0B8_
FNDA:1350,_RNvXs1_NtCs2m0cy4S2nDJ_16lightweight_muse6typingINtB5_4SlotNtB5_4TypeENtNtCse53whbGO0JW_4core5clone5Clone5cloneB7_
FNDA:435,_RNvXs1_NtCs2m0cy4S2nDJ_16lightweight_muse6typingINtB5_4SlotNtNtB7_3ast5ValueENtNtCse53whbGO0JW_4core5clone5Clone5cloneB7_
FNF:32
FNH:32
DA:5,1785
DA:14,3324
DA:31,166
DA:32,166
DA:33,8
DA:34,48
DA:35,110
DA:37,166
DA:39,210
DA:40,210
DA:41,36
DA:42,36
DA:44,6
DA:45,168
DA:47,210
DA:49,232
DA:50,232
DA:51,73
DA:52,73
DA:54,27
DA:55,132
DA:57,232
DA:59,30
DA:60,30
DA:61,4
DA:62,4
DA:63,4
DA:65,0
DA:66,26
DA:68,30
DA:70,22
DA:71,22
DA:72,0
DA:73,12
DA:74,2
DA:75,2
DA:77,8
DA:78,8
DA:80,0
DA:81,0
DA:83,0
DA:84,0
DA:85,0
DA:86,0
DA:87,0
DA:88,0
DA:89,0
DA:90,0
DA:91,0
DA:92,0
DA:93,0
DA:94,0
DA:95,0
DA:96,0
DA:98,0
DA:101,22
DA:206,299
DA:212,21
DA:213,21
DA:214,21
DA:215,21
DA:216,21
DA:218,793
DA:219,793
DA:220,793
DA:221,0
DA:223,793
DA:225,230
DA:226,230
DA:227,230
DA:228,0
DA:229,0
DA:230,0
DA:231,0
DA:232,0
DA:233,0
DA:235,24
DA:236,24
DA:237,1
DA:238,1
DA:239,1
DA:240,1
DA:241,1
DA:242,1
DA:244,23
DA:247,206
DA:249,230
DA:251,230
DA:252,230
DA:253,230
DA:254,230
DA:256,272
DA:257,272
DA:258,272
DA:260,280
DA:261,280
DA:262,384
DA:263,384
DA:264,384
DA:265,384
DA:266,124
DA:267,260
DA:270,0
DA:272,384
DA:273,280
DA:274,280
DA:277,136
DA:278,136
DA:279,102
DA:280,102
DA:281,102
DA:282,102
DA:284,0
DA:287,34
DA:288,34
DA:289,34
DA:290,34
DA:292,0
DA:297,136
DA:299,65
DA:300,65
DA:301,65
DA:302,65
DA:304,169
DA:305,169
DA:306,4
DA:307,165
DA:309,61
DA:310,65
DA:312,71
DA:313,71
DA:314,71
DA:315,204
DA:316,204
DA:317,0
DA:318,204
DA:320,71
DA:321,71
DA:323,22
DA:324,22
DA:325,22
DA:326,22
DA:327,22
DA:328,22
DA:329,22
DA:330,22
DA:332,27
DA:333,27
DA:334,27
DA:336,22
DA:338,5
DA:339,5
DA:342,0
DA:345,27
DA:347,134
DA:348,179
DA:349,134
DA:352,56
DA:353,46
DA:354,4
DA:355,4
DA:356,4
DA:358,0
DA:359,0
DA:360,2
DA:362,56
DA:364,11
DA:365,11
DA:366,11
DA:367,11
DA:368,0
DA:369,1
DA:370,1
DA:372,0
DA:374,1
DA:377,10
DA:379,11
DA:384,50
DA:385,50
DA:386,50
DA:387,50
DA:388,50
DA:389,30
DA:390,30
DA:392,20
DA:393,20
DA:394,0
DA:395,0
DA:396,0
DA:398,20
DA:399,20
DA:400,0
DA:401,20
DA:402,20
DA:403,20
DA:406,0
DA:450,50
DA:452,50
DA:456,50
DA:460,50
DA:464,50
DA:465,50
DA:466,50
DA:470,60
DA:471,60
DA:472,6
DA:473,6
DA:474,48
DA:476,60
BRF:0
BRH:0
LF:217
LH:177
end_of_record